target datalayout = "e-m:e-p270:32:32-p271:32:32-p272:64:64-i64:64-i128:128-f80:128-n8:16:32:64-S128"
target triple = "x86_64-pc-linux-gnu"

%"class.std::set" = type { %"class.std::_Rb_tree" }
%"class.std::_Rb_tree" = type { %"struct.std::_Rb_tree<pxrInternal_v0_24__pxrReserved__::SdfPath, pxrInternal_v0_24__pxrReserved__::SdfPath, std::_Identity<pxrInternal_v0_24__pxrReserved__::SdfPath>, std::less<pxrInternal_v0_24__pxrReserved__::SdfPath>>::_Rb_tree_impl" }
%"struct.std::_Rb_tree<pxrInternal_v0_24__pxrReserved__::SdfPath, pxrInternal_v0_24__pxrReserved__::SdfPath, std::_Identity<pxrInternal_v0_24__pxrReserved__::SdfPath>, std::less<pxrInternal_v0_24__pxrReserved__::SdfPath>>::_Rb_tree_impl" = type { [8 x i8], %"struct.std::_Rb_tree_header" }
%"struct.std::_Rb_tree_header" = type { %"struct.std::_Rb_tree_node_base", i64 }
%"struct.std::_Rb_tree_node_base" = type { i32, ptr, ptr, ptr }
%"class.pxrInternal_v0_24__pxrReserved__::UsdImaging_CollectionCache" = type { %"class.std::unordered_map.13", %"class.std::unordered_map.31", %"class.std::unordered_map", %"class.std::unordered_map.49", %"class.std::set", %"class.std::mutex" }
%"class.std::unordered_map.13" = type { %"class.std::_Hashtable.14" }
%"class.std::_Hashtable.14" = type { ptr, i64, %"struct.std::__detail::_Hash_node_base", i64, %"struct.std::__detail::_Prime_rehash_policy", ptr }
%"struct.std::__detail::_Hash_node_base" = type { ptr }
%"struct.std::__detail::_Prime_rehash_policy" = type { float, i64 }
%"class.std::unordered_map.31" = type { %"class.std::_Hashtable.32" }
%"class.std::_Hashtable.32" = type { ptr, i64, %"struct.std::__detail::_Hash_node_base", i64, %"struct.std::__detail::_Prime_rehash_policy", ptr }
%"class.std::unordered_map" = type { %"class.std::_Hashtable" }
%"class.std::_Hashtable" = type { ptr, i64, %"struct.std::__detail::_Hash_node_base", i64, %"struct.std::__detail::_Prime_rehash_policy", ptr }
%"class.std::unordered_map.49" = type { %"class.std::_Hashtable.50" }
%"class.std::_Hashtable.50" = type { ptr, i64, %"struct.std::__detail::_Hash_node_base", i64, %"struct.std::__detail::_Prime_rehash_policy", ptr }
%"class.std::mutex" = type { %"class.std::__mutex_base" }
%"class.std::__mutex_base" = type { %union.pthread_mutex_t }
%union.pthread_mutex_t = type { %struct.__pthread_mutex_s }
%struct.__pthread_mutex_s = type { i32, i32, i32, i32, i32, i16, i16, %struct.__pthread_internal_list }
%struct.__pthread_internal_list = type { ptr, ptr }

; Function Attrs: mustprogress nounwind uwtable
define linkonce_odr noundef ptr @_ZNKSt8_Rb_treeIN32pxrInternal_v0_24__pxrReserved__7SdfPathES1_St9_IdentityIS1_ESt4lessIS1_ESaIS1_EE9_M_mbeginEv(ptr noundef nonnull align 8 dereferenceable(48) %0) #2 comdat align 2 {
  %2 = alloca ptr, align 8
  store ptr %0, ptr %2, align 8
  %3 = load ptr, ptr %2, align 8
  %4 = getelementptr inbounds nuw %"class.std::_Rb_tree", ptr %3, i32 0, i32 0
  %5 = getelementptr inbounds i8, ptr %4, i64 8
  %6 = getelementptr inbounds nuw %"struct.std::_Rb_tree_header", ptr %5, i32 0, i32 0
  %7 = getelementptr inbounds nuw %"struct.std::_Rb_tree_node_base", ptr %6, i32 0, i32 1
  %8 = load ptr, ptr %7, align 8
  ret ptr %8
}

; Function Attrs: mustprogress nounwind uwtable
define linkonce_odr void @_ZNSt15_Rb_tree_header8_M_resetEv(ptr noundef nonnull align 8 dereferenceable(40) %0) #2 comdat align 2 {
  %2 = alloca ptr, align 8
  store ptr %0, ptr %2, align 8
  %3 = load ptr, ptr %2, align 8
  %4 = getelementptr inbounds nuw %"struct.std::_Rb_tree_header", ptr %3, i32 0, i32 0
  %5 = getelementptr inbounds nuw %"struct.std::_Rb_tree_node_base", ptr %4, i32 0, i32 1
  store ptr null, ptr %5, align 8
  %6 = getelementptr inbounds nuw %"struct.std::_Rb_tree_header", ptr %3, i32 0, i32 0
  %7 = getelementptr inbounds nuw %"struct.std::_Rb_tree_header", ptr %3, i32 0, i32 0
  %8 = getelementptr inbounds nuw %"struct.std::_Rb_tree_node_base", ptr %7, i32 0, i32 2
  store ptr %6, ptr %8, align 8
  %9 = getelementptr inbounds nuw %"struct.std::_Rb_tree_header", ptr %3, i32 0, i32 0
  %10 = getelementptr inbounds nuw %"struct.std::_Rb_tree_header", ptr %3, i32 0, i32 0
  %11 = getelementptr inbounds nuw %"struct.std::_Rb_tree_node_base", ptr %10, i32 0, i32 3
  store ptr %9, ptr %11, align 8
  %12 = getelementptr inbounds nuw %"struct.std::_Rb_tree_header", ptr %3, i32 0, i32 1
  store i64 0, ptr %12, align 8
  ret void
}

; Function Attrs: mustprogress nounwind uwtable
define linkonce_odr noundef ptr @_ZNSt8_Rb_treeIN32pxrInternal_v0_24__pxrReserved__7SdfPathES1_St9_IdentityIS1_ESt4lessIS1_ESaIS1_EE8_M_beginEv(ptr noundef nonnull align 8 dereferenceable(48) %0) #2 comdat align 2 {
  %2 = alloca ptr, align 8
  store ptr %0, ptr %2, align 8
  %3 = load ptr, ptr %2, align 8
  %4 = call noundef ptr @_ZNKSt8_Rb_treeIN32pxrInternal_v0_24__pxrReserved__7SdfPathES1_St9_IdentityIS1_ESt4lessIS1_ESaIS1_EE9_M_mbeginEv(ptr noundef nonnull align 8 dereferenceable(48) %3) #12
  ret ptr %4
}

; Function Attrs: mustprogress nounwind uwtable
define linkonce_odr void @_ZNSt8_Rb_treeIN32pxrInternal_v0_24__pxrReserved__7SdfPathES1_St9_IdentityIS1_ESt4lessIS1_ESaIS1_EE5clearEv(ptr noundef nonnull align 8 dereferenceable(48) %0) #2 comdat align 2 personality ptr @__gxx_personality_v0 {
  %2 = alloca ptr, align 8
  store ptr %0, ptr %2, align 8
  %3 = load ptr, ptr %2, align 8
  %4 = call noundef ptr @_ZNSt8_Rb_treeIN32pxrInternal_v0_24__pxrReserved__7SdfPathES1_St9_IdentityIS1_ESt4lessIS1_ESaIS1_EE8_M_beginEv(ptr noundef nonnull align 8 dereferenceable(48) %3) #12
  invoke void @_ZNSt8_Rb_treeIN32pxrInternal_v0_24__pxrReserved__7SdfPathES1_St9_IdentityIS1_ESt4lessIS1_ESaIS1_EE8_M_eraseEPSt13_Rb_tree_nodeIS1_E(ptr noundef nonnull align 8 dereferenceable(48) %3, ptr noundef %4)
          to label %5 unwind label %8

5:                                                ; preds = %1
  %6 = getelementptr inbounds nuw %"class.std::_Rb_tree", ptr %3, i32 0, i32 0
  %7 = getelementptr inbounds i8, ptr %6, i64 8
  call void @_ZNSt15_Rb_tree_header8_M_resetEv(ptr noundef nonnull align 8 dereferenceable(40) %7)
  ret void

8:                                                ; preds = %1
  %9 = landingpad { ptr, i32 }
          catch ptr null
  %10 = extractvalue { ptr, i32 } %9, 0
  call void @__clang_call_terminate(ptr %10) #13
  unreachable
}

; Function Attrs: mustprogress nounwind uwtable
define linkonce_odr void @_ZNSt3setIN32pxrInternal_v0_24__pxrReserved__7SdfPathESt4lessIS1_ESaIS1_EE5clearEv(ptr noundef nonnull align 8 dereferenceable(48) %0) #2 comdat align 2 {
  %2 = alloca ptr, align 8
  store ptr %0, ptr %2, align 8
  %3 = load ptr, ptr %2, align 8
  %4 = getelementptr inbounds nuw %"class.std::set", ptr %3, i32 0, i32 0
  call void @_ZNSt8_Rb_treeIN32pxrInternal_v0_24__pxrReserved__7SdfPathES1_St9_IdentityIS1_ESt4lessIS1_ESaIS1_EE5clearEv(ptr noundef nonnull align 8 dereferenceable(48) %4) #12
  ret void
}

; Function Attrs: mustprogress nounwind uwtable
define void @_ZN32pxrInternal_v0_24__pxrReserved__26UsdImaging_CollectionCache15ClearDirtyPathsEv(ptr noundef nonnull align 8 dereferenceable(312) %0) #2 align 2 {
  %2 = alloca ptr, align 8
  store ptr %0, ptr %2, align 8
  %3 = load ptr, ptr %2, align 8
  %4 = getelementptr inbounds nuw %"class.pxrInternal_v0_24__pxrReserved__::UsdImaging_CollectionCache", ptr %3, i32 0, i32 4
  call void @_ZNSt3setIN32pxrInternal_v0_24__pxrReserved__7SdfPathESt4lessIS1_ESaIS1_EE5clearEv(ptr noundef nonnull align 8 dereferenceable(48) %4) #12
  ret void
}